; ModuleID = '9/1360.c'
source_filename = "9/1360.c"
target datalayout = "e-m:e-p270:32:32-p271:32:32-p272:64:64-i64:64-f80:128-n8:16:32:64-S128"
target triple = "x86_64-pc-linux-gnu"

%struct.patient = type { [10 x i8], i32 }

@.str = private unnamed_addr constant [3 x i8] c"%d\00", align 1
@.str.1 = private unnamed_addr constant [6 x i8] c"%s %d\00", align 1
@.str.2 = private unnamed_addr constant [4 x i8] c"%s\0A\00", align 1

; Function Attrs: noinline nounwind uwtable
define dso_local i32 @main() #0 {
  %1 = alloca i32, align 4
  %2 = alloca i32, align 4
  %3 = alloca i32, align 4
  %4 = alloca i32, align 4
  %5 = alloca i32, align 4
  %6 = alloca i32, align 4
  %7 = alloca %struct.patient, align 4
  %8 = alloca %struct.patient*, align 8
  %9 = alloca %struct.patient*, align 8
  %10 = alloca %struct.patient*, align 8
  store i32 0, i32* %1, align 4
  %11 = call i32 (i8*, ...) @__isoc99_scanf(i8* getelementptr inbounds ([3 x i8], [3 x i8]* @.str, i64 0, i64 0), i32* %3)
  %12 = load i32, i32* %3, align 4
  %13 = sext i32 %12 to i64
  %14 = mul i64 16, %13
  %15 = call noalias i8* @malloc(i64 %14) #4
  %16 = bitcast i8* %15 to %struct.patient*
  store %struct.patient* %16, %struct.patient** %9, align 8
  %17 = load i32, i32* %3, align 4
  %18 = sext i32 %17 to i64
  %19 = mul i64 16, %18
  %20 = call noalias i8* @malloc(i64 %19) #4
  %21 = bitcast i8* %20 to %struct.patient*
  store %struct.patient* %21, %struct.patient** %10, align 8
  store i32 0, i32* %6, align 4
  store i32 0, i32* %2, align 4
  br label %22

22:                                               ; preds = %39, %0
  %23 = load i32, i32* %2, align 4
  %24 = load i32, i32* %3, align 4
  %25 = icmp slt i32 %23, %24
  br i1 %25, label %26, label %42

26:                                               ; preds = %22
  %27 = load %struct.patient*, %struct.patient** %9, align 8
  %28 = load i32, i32* %2, align 4
  %29 = sext i32 %28 to i64
  %30 = getelementptr inbounds %struct.patient, %struct.patient* %27, i64 %29
  %31 = getelementptr inbounds %struct.patient, %struct.patient* %30, i32 0, i32 0
  %32 = getelementptr inbounds [10 x i8], [10 x i8]* %31, i64 0, i64 0
  %33 = load %struct.patient*, %struct.patient** %9, align 8
  %34 = load i32, i32* %2, align 4
  %35 = sext i32 %34 to i64
  %36 = getelementptr inbounds %struct.patient, %struct.patient* %33, i64 %35
  %37 = getelementptr inbounds %struct.patient, %struct.patient* %36, i32 0, i32 1
  %38 = call i32 (i8*, ...) @__isoc99_scanf(i8* getelementptr inbounds ([6 x i8], [6 x i8]* @.str.1, i64 0, i64 0), i8* %32, i32* %37)
  br label %39

39:                                               ; preds = %26
  %40 = load i32, i32* %2, align 4
  %41 = add nsw i32 %40, 1
  store i32 %41, i32* %2, align 4
  br label %22

42:                                               ; preds = %22
  %43 = load %struct.patient*, %struct.patient** %10, align 8
  store %struct.patient* %43, %struct.patient** %8, align 8
  store i32 0, i32* %2, align 4
  br label %44

44:                                               ; preds = %69, %42
  %45 = load i32, i32* %2, align 4
  %46 = load i32, i32* %3, align 4
  %47 = icmp slt i32 %45, %46
  br i1 %47, label %48, label %72

48:                                               ; preds = %44
  %49 = load %struct.patient*, %struct.patient** %9, align 8
  %50 = load i32, i32* %2, align 4
  %51 = sext i32 %50 to i64
  %52 = getelementptr inbounds %struct.patient, %struct.patient* %49, i64 %51
  %53 = getelementptr inbounds %struct.patient, %struct.patient* %52, i32 0, i32 1
  %54 = load i32, i32* %53, align 4
  %55 = icmp sge i32 %54, 60
  br i1 %55, label %56, label %68

56:                                               ; preds = %48
  %57 = load %struct.patient*, %struct.patient** %8, align 8
  %58 = load %struct.patient*, %struct.patient** %9, align 8
  %59 = load i32, i32* %2, align 4
  %60 = sext i32 %59 to i64
  %61 = getelementptr inbounds %struct.patient, %struct.patient* %58, i64 %60
  %62 = bitcast %struct.patient* %57 to i8*
  %63 = bitcast %struct.patient* %61 to i8*
  call void @llvm.memcpy.p0i8.p0i8.i64(i8* align 4 %62, i8* align 4 %63, i64 16, i1 false)
  %64 = load %struct.patient*, %struct.patient** %8, align 8
  %65 = getelementptr inbounds %struct.patient, %struct.patient* %64, i32 1
  store %struct.patient* %65, %struct.patient** %8, align 8
  %66 = load i32, i32* %6, align 4
  %67 = add nsw i32 %66, 1
  store i32 %67, i32* %6, align 4
  br label %68

68:                                               ; preds = %56, %48
  br label %69

69:                                               ; preds = %68
  %70 = load i32, i32* %2, align 4
  %71 = add nsw i32 %70, 1
  store i32 %71, i32* %2, align 4
  br label %44

72:                                               ; preds = %44
  store i32 0, i32* %2, align 4
  br label %73

73:                                               ; preds = %96, %72
  %74 = load i32, i32* %2, align 4
  %75 = load i32, i32* %3, align 4
  %76 = icmp slt i32 %74, %75
  br i1 %76, label %77, label %99

77:                                               ; preds = %73
  %78 = load %struct.patient*, %struct.patient** %9, align 8
  %79 = load i32, i32* %2, align 4
  %80 = sext i32 %79 to i64
  %81 = getelementptr inbounds %struct.patient, %struct.patient* %78, i64 %80
  %82 = getelementptr inbounds %struct.patient, %struct.patient* %81, i32 0, i32 1
  %83 = load i32, i32* %82, align 4
  %84 = icmp slt i32 %83, 60
  br i1 %84, label %85, label %95

85:                                               ; preds = %77
  %86 = load %struct.patient*, %struct.patient** %8, align 8
  %87 = load %struct.patient*, %struct.patient** %9, align 8
  %88 = load i32, i32* %2, align 4
  %89 = sext i32 %88 to i64
  %90 = getelementptr inbounds %struct.patient, %struct.patient* %87, i64 %89
  %91 = bitcast %struct.patient* %86 to i8*
  %92 = bitcast %struct.patient* %90 to i8*
  call void @llvm.memcpy.p0i8.p0i8.i64(i8* align 4 %91, i8* align 4 %92, i64 16, i1 false)
  %93 = load %struct.patient*, %struct.patient** %8, align 8
  %94 = getelementptr inbounds %struct.patient, %struct.patient* %93, i32 1
  store %struct.patient* %94, %struct.patient** %8, align 8
  br label %95

95:                                               ; preds = %85, %77
  br label %96

96:                                               ; preds = %95
  %97 = load i32, i32* %2, align 4
  %98 = add nsw i32 %97, 1
  store i32 %98, i32* %2, align 4
  br label %73

99:                                               ; preds = %73
  store i32 1, i32* %2, align 4
  br label %100

100:                                              ; preds = %156, %99
  %101 = load i32, i32* %2, align 4
  %102 = load i32, i32* %6, align 4
  %103 = icmp slt i32 %101, %102
  br i1 %103, label %104, label %159

104:                                              ; preds = %100
  store i32 0, i32* %4, align 4
  br label %105

105:                                              ; preds = %152, %104
  %106 = load i32, i32* %4, align 4
  %107 = load i32, i32* %6, align 4
  %108 = load i32, i32* %2, align 4
  %109 = sub nsw i32 %107, %108
  %110 = icmp slt i32 %106, %109
  br i1 %110, label %111, label %155

111:                                              ; preds = %105
  %112 = load %struct.patient*, %struct.patient** %10, align 8
  %113 = load i32, i32* %4, align 4
  %114 = sext i32 %113 to i64
  %115 = getelementptr inbounds %struct.patient, %struct.patient* %112, i64 %114
  %116 = getelementptr inbounds %struct.patient, %struct.patient* %115, i32 0, i32 1
  %117 = load i32, i32* %116, align 4
  %118 = load %struct.patient*, %struct.patient** %10, align 8
  %119 = load i32, i32* %4, align 4
  %120 = add nsw i32 %119, 1
  %121 = sext i32 %120 to i64
  %122 = getelementptr inbounds %struct.patient, %struct.patient* %118, i64 %121
  %123 = getelementptr inbounds %struct.patient, %struct.patient* %122, i32 0, i32 1
  %124 = load i32, i32* %123, align 4
  %125 = icmp slt i32 %117, %124
  br i1 %125, label %126, label %151

126:                                              ; preds = %111
  %127 = load %struct.patient*, %struct.patient** %10, align 8
  %128 = load i32, i32* %4, align 4
  %129 = add nsw i32 %128, 1
  %130 = sext i32 %129 to i64
  %131 = getelementptr inbounds %struct.patient, %struct.patient* %127, i64 %130
  %132 = bitcast %struct.patient* %7 to i8*
  %133 = bitcast %struct.patient* %131 to i8*
  call void @llvm.memcpy.p0i8.p0i8.i64(i8* align 4 %132, i8* align 4 %133, i64 16, i1 false)
  %134 = load %struct.patient*, %struct.patient** %10, align 8
  %135 = load i32, i32* %4, align 4
  %136 = add nsw i32 %135, 1
  %137 = sext i32 %136 to i64
  %138 = getelementptr inbounds %struct.patient, %struct.patient* %134, i64 %137
  %139 = load %struct.patient*, %struct.patient** %10, align 8
  %140 = load i32, i32* %4, align 4
  %141 = sext i32 %140 to i64
  %142 = getelementptr inbounds %struct.patient, %struct.patient* %139, i64 %141
  %143 = bitcast %struct.patient* %138 to i8*
  %144 = bitcast %struct.patient* %142 to i8*
  call void @llvm.memcpy.p0i8.p0i8.i64(i8* align 4 %143, i8* align 4 %144, i64 16, i1 false)
  %145 = load %struct.patient*, %struct.patient** %10, align 8
  %146 = load i32, i32* %4, align 4
  %147 = sext i32 %146 to i64
  %148 = getelementptr inbounds %struct.patient, %struct.patient* %145, i64 %147
  %149 = bitcast %struct.patient* %148 to i8*
  %150 = bitcast %struct.patient* %7 to i8*
  call void @llvm.memcpy.p0i8.p0i8.i64(i8* align 4 %149, i8* align 4 %150, i64 16, i1 false)
  br label %151

151:                                              ; preds = %126, %111
  br label %152

152:                                              ; preds = %151
  %153 = load i32, i32* %4, align 4
  %154 = add nsw i32 %153, 1
  store i32 %154, i32* %4, align 4
  br label %105

155:                                              ; preds = %105
  br label %156

156:                                              ; preds = %155
  %157 = load i32, i32* %2, align 4
  %158 = add nsw i32 %157, 1
  store i32 %158, i32* %2, align 4
  br label %100

159:                                              ; preds = %100
  store i32 0, i32* %2, align 4
  br label %160

160:                                              ; preds = %172, %159
  %161 = load i32, i32* %2, align 4
  %162 = load i32, i32* %3, align 4
  %163 = icmp slt i32 %161, %162
  br i1 %163, label %164, label %175

164:                                              ; preds = %160
  %165 = load %struct.patient*, %struct.patient** %10, align 8
  %166 = load i32, i32* %2, align 4
  %167 = sext i32 %166 to i64
  %168 = getelementptr inbounds %struct.patient, %struct.patient* %165, i64 %167
  %169 = getelementptr inbounds %struct.patient, %struct.patient* %168, i32 0, i32 0
  %170 = getelementptr inbounds [10 x i8], [10 x i8]* %169, i64 0, i64 0
  %171 = call i32 (i8*, ...) @printf(i8* getelementptr inbounds ([4 x i8], [4 x i8]* @.str.2, i64 0, i64 0), i8* %170)
  br label %172

172:                                              ; preds = %164
  %173 = load i32, i32* %2, align 4
  %174 = add nsw i32 %173, 1
  store i32 %174, i32* %2, align 4
  br label %160

175:                                              ; preds = %160
  ret i32 0
}

declare dso_local i32 @__isoc99_scanf(i8*, ...) #1

; Function Attrs: nounwind
declare dso_local noalias i8* @malloc(i64) #2

; Function Attrs: argmemonly nounwind willreturn
declare void @llvm.memcpy.p0i8.p0i8.i64(i8* noalias nocapture writeonly, i8* noalias nocapture readonly, i64, i1 immarg) #3

declare dso_local i32 @printf(i8*, ...) #1


!llvm.module.flags = !{!0}
!llvm.ident = !{!1}

!0 = !{i32 1, !"wchar_size", i32 4}
!1 = !{!"clang version 10.0.0-4ubuntu1 "}
